target datalayout = "e-m:e-p270:32:32-p271:32:32-p272:64:64-i64:64-i128:128-f80:128-n8:16:32:64-S128"
target triple = "x86_64-pc-linux-gnu"

%"class.std::vector" = type { %"struct.std::_Vector_base" }
%"struct.std::_Vector_base" = type { %"struct.std::_Vector_base<std::__cxx11::basic_string<char>, std::allocator<std::__cxx11::basic_string<char>>>::_Vector_impl" }
%"struct.std::_Vector_base<std::__cxx11::basic_string<char>, std::allocator<std::__cxx11::basic_string<char>>>::_Vector_impl" = type { %"struct.std::_Vector_base<std::__cxx11::basic_string<char>, std::allocator<std::__cxx11::basic_string<char>>>::_Vector_impl_data" }
%"struct.std::_Vector_base<std::__cxx11::basic_string<char>, std::allocator<std::__cxx11::basic_string<char>>>::_Vector_impl_data" = type { ptr, ptr, ptr }
%"class.std::__cxx11::basic_string" = type { %"struct.std::__cxx11::basic_string<char>::_Alloc_hider", i64, %union.anon }
%"struct.std::__cxx11::basic_string<char>::_Alloc_hider" = type { ptr }
%union.anon = type { i64, [8 x i8] }
%"struct.std::_Rb_tree_header" = type { %"struct.std::_Rb_tree_node_base", i64 }
%"struct.std::_Rb_tree_node_base" = type { i32, ptr, ptr, ptr }
%"class.casadi::Integrator" = type { %"class.casadi::OracleFunction", %"class.casadi::PluginInterface", %"class.casadi::Sparsity", %"class.casadi::Sparsity", double, %"class.std::vector.45", i64, i64, %"class.casadi::Function", i64, i64, i64, i64, i64, i64, i64, i64, i64, i64, i64, i64, i64, i64, i64, i64, i64, i64, i64, i64, i64, i64, %"class.std::vector.45", %"class.std::vector.45", %"class.std::map.28", %"class.std::map.28", i8, %"class.casadi::Function", i64, i64, double, double }
%"class.casadi::OracleFunction" = type { %"class.casadi::FunctionInternal", %"class.casadi::Function", %"class.std::map.28", %"class.std::map.28", i8, i32, %"class.std::map.39", %"class.std::vector", i64, i64, i64, i64 }
%"class.casadi::FunctionInternal" = type { %"class.casadi::ProtoFunction", i8, i8, i64, i64, %"class.std::vector.19", %"class.std::vector.19", %"class.std::vector.23", %"class.std::vector.23", %"class.std::vector", %"class.std::vector", i8, i8, %"class.std::__cxx11::basic_string", %"class.std::__cxx11::basic_string", %"class.std::__cxx11::basic_string", i8, ptr, ptr, ptr, %"class.std::map.28", i8, %"class.std::map.28", %"class.casadi::WeakCache", [2 x %"class.std::vector.23"], %"class.casadi::Function", ptr, %"class.std::__cxx11::basic_string", %"class.casadi::Importer", %"class.std::map.28", double, i8, i8, i8, i8, i8, i8, i8, i8, double, double, i64, i8, %"class.std::map.28", double, %"class.std::__cxx11::basic_string", i8, i8, i64, i8, i8, i8, %"class.std::__cxx11::basic_string", %"class.std::__cxx11::basic_string", %"class.std::map.28", %"class.std::map.28", %"class.std::map.28", %"class.std::map.28", %"class.casadi::Function", i64, i64, i64, i64, i64, i64, i64, i64, i64 }
%"class.casadi::ProtoFunction" = type { %"class.casadi::SharedObjectInternal", %"class.std::__cxx11::basic_string", i8, i8, i8, i8, i8, %"class.std::vector.11", %"class.std::stack" }
%"class.casadi::SharedObjectInternal" = type { %"class.casadi::GenericSharedInternal", i64 }
%"class.casadi::GenericSharedInternal" = type { ptr, ptr }
%"class.std::vector.11" = type { %"struct.std::_Vector_base.12" }
%"struct.std::_Vector_base.12" = type { %"struct.std::_Vector_base<void *, std::allocator<void *>>::_Vector_impl" }
%"struct.std::_Vector_base<void *, std::allocator<void *>>::_Vector_impl" = type { %"struct.std::_Vector_base<void *, std::allocator<void *>>::_Vector_impl_data" }
%"struct.std::_Vector_base<void *, std::allocator<void *>>::_Vector_impl_data" = type { ptr, ptr, ptr }
%"class.std::stack" = type { %"class.std::deque" }
%"class.std::deque" = type { %"class.std::_Deque_base" }
%"class.std::_Deque_base" = type { %"struct.std::_Deque_base<int, std::allocator<int>>::_Deque_impl" }
%"struct.std::_Deque_base<int, std::allocator<int>>::_Deque_impl" = type { %"struct.std::_Deque_base<int, std::allocator<int>>::_Deque_impl_data" }
%"struct.std::_Deque_base<int, std::allocator<int>>::_Deque_impl_data" = type { ptr, i64, %"struct.std::_Deque_iterator", %"struct.std::_Deque_iterator" }
%"struct.std::_Deque_iterator" = type { ptr, ptr, ptr, ptr }
%"class.std::vector.19" = type { %"struct.std::_Bvector_base" }
%"struct.std::_Bvector_base" = type { %"struct.std::_Bvector_base<std::allocator<bool>>::_Bvector_impl" }
%"struct.std::_Bvector_base<std::allocator<bool>>::_Bvector_impl" = type { %"struct.std::_Bvector_base<std::allocator<bool>>::_Bvector_impl_data" }
%"struct.std::_Bvector_base<std::allocator<bool>>::_Bvector_impl_data" = type { %"struct.std::_Bit_iterator", %"struct.std::_Bit_iterator", ptr }
%"struct.std::_Bit_iterator" = type { %"struct.std::_Bit_iterator_base.base", [4 x i8] }
%"struct.std::_Bit_iterator_base.base" = type <{ ptr, i32 }>
%"class.std::vector.23" = type { %"struct.std::_Vector_base.24" }
%"struct.std::_Vector_base.24" = type { %"struct.std::_Vector_base<casadi::Sparsity, std::allocator<casadi::Sparsity>>::_Vector_impl" }
%"struct.std::_Vector_base<casadi::Sparsity, std::allocator<casadi::Sparsity>>::_Vector_impl" = type { %"struct.std::_Vector_base<casadi::Sparsity, std::allocator<casadi::Sparsity>>::_Vector_impl_data" }
%"struct.std::_Vector_base<casadi::Sparsity, std::allocator<casadi::Sparsity>>::_Vector_impl_data" = type { ptr, ptr, ptr }
%"class.casadi::WeakCache" = type { %"class.std::unordered_map" }
%"class.std::unordered_map" = type { %"class.std::_Hashtable" }
%"class.std::_Hashtable" = type { ptr, i64, %"struct.std::__detail::_Hash_node_base", i64, %"struct.std::__detail::_Prime_rehash_policy", ptr }
%"struct.std::__detail::_Hash_node_base" = type { ptr }
%"struct.std::__detail::_Prime_rehash_policy" = type { float, i64 }
%"class.casadi::Importer" = type { %"class.casadi::SharedObject" }
%"class.casadi::SharedObject" = type { %"class.casadi::GenericShared" }
%"class.casadi::GenericShared" = type { ptr }
%"class.std::map.39" = type { %"class.std::_Rb_tree.40" }
%"class.std::_Rb_tree.40" = type { %"struct.std::_Rb_tree<std::__cxx11::basic_string<char>, std::pair<const std::__cxx11::basic_string<char>, casadi::OracleFunction::RegFun>, std::_Select1st<std::pair<const std::__cxx11::basic_string<char>, casadi::OracleFunction::RegFun>>, std::less<std::__cxx11::basic_string<char>>>::_Rb_tree_impl" }
%"struct.std::_Rb_tree<std::__cxx11::basic_string<char>, std::pair<const std::__cxx11::basic_string<char>, casadi::OracleFunction::RegFun>, std::_Select1st<std::pair<const std::__cxx11::basic_string<char>, casadi::OracleFunction::RegFun>>, std::less<std::__cxx11::basic_string<char>>>::_Rb_tree_impl" = type { [8 x i8], %"struct.std::_Rb_tree_header" }
%"class.casadi::PluginInterface" = type { ptr }
%"class.casadi::Sparsity" = type { %"class.casadi::SharedObject" }
%"class.casadi::Function" = type { %"class.casadi::SharedObject" }
%"class.std::map.28" = type { %"class.std::_Rb_tree.29" }
%"class.std::_Rb_tree.29" = type { %"struct.std::_Rb_tree<std::__cxx11::basic_string<char>, std::pair<const std::__cxx11::basic_string<char>, casadi::GenericType>, std::_Select1st<std::pair<const std::__cxx11::basic_string<char>, casadi::GenericType>>, std::less<std::__cxx11::basic_string<char>>>::_Rb_tree_impl" }
%"struct.std::_Rb_tree<std::__cxx11::basic_string<char>, std::pair<const std::__cxx11::basic_string<char>, casadi::GenericType>, std::_Select1st<std::pair<const std::__cxx11::basic_string<char>, casadi::GenericType>>, std::less<std::__cxx11::basic_string<char>>>::_Rb_tree_impl" = type { [8 x i8], %"struct.std::_Rb_tree_header" }
%"class.std::vector.45" = type { %"struct.std::_Vector_base.46" }
%"struct.std::_Vector_base.46" = type { %"struct.std::_Vector_base<double, std::allocator<double>>::_Vector_impl" }
%"struct.std::_Vector_base<double, std::allocator<double>>::_Vector_impl" = type { %"struct.std::_Vector_base<double, std::allocator<double>>::_Vector_impl_data" }
%"struct.std::_Vector_base<double, std::allocator<double>>::_Vector_impl_data" = type { ptr, ptr, ptr }
%"struct.casadi::IdasMemory" = type { %"struct.casadi::SundialsMemory.base", ptr, ptr, i32, double }
%"struct.casadi::SundialsMemory.base" = type <{ %"struct.casadi::IntegratorMemory", ptr, ptr, ptr, ptr, ptr, ptr, i8, [7 x i8], ptr, ptr, ptr, ptr, ptr, i64, i64, i64, i64, i32, i32, double, double, double, double, i64, i64, i64, i64, i64, i64, i32, i32, double, double, double, double, i64, i64, i64, i64, i64, i64, i64, i64, i32, [4 x i8], ptr, i32 }>
%"struct.casadi::IntegratorMemory" = type { %"struct.casadi::OracleMemory", ptr, ptr, ptr, ptr, ptr, ptr, ptr, ptr, ptr, ptr, ptr, ptr, ptr, ptr, ptr, ptr, i64, double, double, double, double, double, double, ptr, i8, i64, i64, i64 }
%"struct.casadi::OracleMemory" = type { %"struct.casadi::FunctionMemory", ptr, ptr, ptr, ptr, %"struct.casadi::casadi_oracle_data", %"class.std::vector.69" }
%"struct.casadi::FunctionMemory" = type { %"struct.casadi::ProtoFunctionMemory" }
%"struct.casadi::ProtoFunctionMemory" = type { %"class.std::map.64", ptr }
%"class.std::map.64" = type { %"class.std::_Rb_tree.65" }
%"class.std::_Rb_tree.65" = type { %"struct.std::_Rb_tree<std::__cxx11::basic_string<char>, std::pair<const std::__cxx11::basic_string<char>, casadi::FStats>, std::_Select1st<std::pair<const std::__cxx11::basic_string<char>, casadi::FStats>>, std::less<std::__cxx11::basic_string<char>>>::_Rb_tree_impl" }
%"struct.std::_Rb_tree<std::__cxx11::basic_string<char>, std::pair<const std::__cxx11::basic_string<char>, casadi::FStats>, std::_Select1st<std::pair<const std::__cxx11::basic_string<char>, casadi::FStats>>, std::less<std::__cxx11::basic_string<char>>>::_Rb_tree_impl" = type { [8 x i8], %"struct.std::_Rb_tree_header" }
%"struct.casadi::casadi_oracle_data" = type { ptr, ptr, ptr, ptr, ptr }
%"class.std::vector.69" = type { %"struct.std::_Vector_base.70" }
%"struct.std::_Vector_base.70" = type { %"struct.std::_Vector_base<casadi::LocalOracleMemory *, std::allocator<casadi::LocalOracleMemory *>>::_Vector_impl" }
%"struct.std::_Vector_base<casadi::LocalOracleMemory *, std::allocator<casadi::LocalOracleMemory *>>::_Vector_impl" = type { %"struct.std::_Vector_base<casadi::LocalOracleMemory *, std::allocator<casadi::LocalOracleMemory *>>::_Vector_impl_data" }
%"struct.std::_Vector_base<casadi::LocalOracleMemory *, std::allocator<casadi::LocalOracleMemory *>>::_Vector_impl_data" = type { ptr, ptr, ptr }
%struct._generic_N_Vector = type { ptr, ptr }
%struct._N_VectorContent_Serial = type { i64, i32, ptr }

@_ZTISt9exception = external constant ptr
@.str.125 = private unnamed_addr constant [14 x i8] c"rhsQ failed: \00", align 1

; Function Attrs: mustprogress uwtable
define available_externally noundef nonnull align 8 dereferenceable(8) ptr @_ZNSolsEPFRSoS_E(ptr noundef nonnull align 8 dereferenceable(8) %0, ptr noundef %1) #6 align 2 {
  %3 = alloca ptr, align 8
  %4 = alloca ptr, align 8
  store ptr %0, ptr %3, align 8, !tbaa !185
  store ptr %1, ptr %4, align 8, !tbaa !45
  %5 = load ptr, ptr %3, align 8
  %6 = load ptr, ptr %4, align 8, !tbaa !45
  %7 = call noundef nonnull align 8 dereferenceable(8) ptr %6(ptr noundef nonnull align 8 dereferenceable(8) %5)
  ret ptr %7
}

; Function Attrs: mustprogress uwtable
define noundef i32 @_ZN6casadi13IdasInterface5rhsQFEdP17_generic_N_VectorS2_S2_Pv(double noundef %0, ptr noundef %1, ptr noundef %2, ptr noundef %3, ptr noundef %4) #6 align 2 personality ptr @__gxx_personality_v0 {
  %6 = alloca i32, align 4
  %7 = alloca double, align 8
  %8 = alloca ptr, align 8
  %9 = alloca ptr, align 8
  %10 = alloca ptr, align 8
  %11 = alloca ptr, align 8
  %12 = alloca ptr, align 8
  %13 = alloca ptr, align 8
  %14 = alloca i32, align 4
  %15 = alloca ptr, align 8
  %16 = alloca i32, align 4
  %17 = alloca ptr, align 8
  store double %0, ptr %7, align 8, !tbaa !39
  store ptr %1, ptr %8, align 8, !tbaa !207
  store ptr %2, ptr %9, align 8, !tbaa !207
  store ptr %3, ptr %10, align 8, !tbaa !207
  store ptr %4, ptr %11, align 8, !tbaa !45
  call void @llvm.lifetime.start.p0(i64 8, ptr %12) #3
  %18 = load ptr, ptr %11, align 8, !tbaa !45
  %19 = invoke noundef ptr @_ZN6casadi13IdasInterface6to_memEPv(ptr noundef %18)
          to label %20 unwind label %50

20:                                               ; preds = %5
  store ptr %19, ptr %12, align 8, !tbaa !209
  call void @llvm.lifetime.start.p0(i64 8, ptr %15) #3
  %21 = load ptr, ptr %12, align 8, !tbaa !209
  %22 = getelementptr inbounds nuw %"struct.casadi::IdasMemory", ptr %21, i32 0, i32 1
  %23 = load ptr, ptr %22, align 8, !tbaa !211
  store ptr %23, ptr %15, align 8, !tbaa !50
  %24 = load ptr, ptr %15, align 8, !tbaa !50
  %25 = load ptr, ptr %12, align 8, !tbaa !209
  %26 = load double, ptr %7, align 8, !tbaa !39
  %27 = load ptr, ptr %8, align 8, !tbaa !207
  %28 = getelementptr inbounds nuw %struct._generic_N_Vector, ptr %27, i32 0, i32 0
  %29 = load ptr, ptr %28, align 8, !tbaa !229
  %30 = getelementptr inbounds nuw %struct._N_VectorContent_Serial, ptr %29, i32 0, i32 2
  %31 = load ptr, ptr %30, align 8, !tbaa !232
  %32 = load ptr, ptr %8, align 8, !tbaa !207
  %33 = getelementptr inbounds nuw %struct._generic_N_Vector, ptr %32, i32 0, i32 0
  %34 = load ptr, ptr %33, align 8, !tbaa !229
  %35 = getelementptr inbounds nuw %struct._N_VectorContent_Serial, ptr %34, i32 0, i32 2
  %36 = load ptr, ptr %35, align 8, !tbaa !232
  %37 = load ptr, ptr %15, align 8, !tbaa !50
  %38 = getelementptr inbounds nuw %"class.casadi::Integrator", ptr %37, i32 0, i32 9
  %39 = load i64, ptr %38, align 8, !tbaa !181
  %40 = getelementptr inbounds double, ptr %36, i64 %39
  %41 = load ptr, ptr %10, align 8, !tbaa !207
  %42 = getelementptr inbounds nuw %struct._generic_N_Vector, ptr %41, i32 0, i32 0
  %43 = load ptr, ptr %42, align 8, !tbaa !229
  %44 = getelementptr inbounds nuw %struct._N_VectorContent_Serial, ptr %43, i32 0, i32 2
  %45 = load ptr, ptr %44, align 8, !tbaa !232
  %46 = invoke noundef i32 @_ZNK6casadi17SundialsInterface10calc_quadFEPNS_14SundialsMemoryEdPKdS4_Pd(ptr noundef nonnull align 8 dereferenceable(2184) %24, ptr noundef %25, double noundef %26, ptr noundef %31, ptr noundef %40, ptr noundef %45)
          to label %47 unwind label %54

47:                                               ; preds = %20
  %48 = icmp ne i32 %46, 0
  br i1 %48, label %49, label %58

49:                                               ; preds = %47
  store i32 1, ptr %6, align 4
  store i32 1, ptr %16, align 4
  br label %59

50:                                               ; preds = %5
  %51 = landingpad { ptr, i32 }
          cleanup
          catch ptr @_ZTISt9exception
  %52 = extractvalue { ptr, i32 } %51, 0
  store ptr %52, ptr %13, align 8
  %53 = extractvalue { ptr, i32 } %51, 1
  store i32 %53, ptr %14, align 4
  br label %60

54:                                               ; preds = %20
  %55 = landingpad { ptr, i32 }
          cleanup
          catch ptr @_ZTISt9exception
  %56 = extractvalue { ptr, i32 } %55, 0
  store ptr %56, ptr %13, align 8
  %57 = extractvalue { ptr, i32 } %55, 1
  store i32 %57, ptr %14, align 4
  call void @llvm.lifetime.end.p0(i64 8, ptr %15) #3
  br label %60

58:                                               ; preds = %47
  store i32 0, ptr %6, align 4
  store i32 1, ptr %16, align 4
  br label %59

59:                                               ; preds = %58, %49
  call void @llvm.lifetime.end.p0(i64 8, ptr %15) #3
  call void @llvm.lifetime.end.p0(i64 8, ptr %12) #3
  br label %87

60:                                               ; preds = %54, %50
  call void @llvm.lifetime.end.p0(i64 8, ptr %12) #3
  br label %61

61:                                               ; preds = %60
  %62 = load i32, ptr %14, align 4
  %63 = call i32 @llvm.eh.typeid.for.p0(ptr @_ZTISt9exception) #3
  %64 = icmp eq i32 %62, %63
  br i1 %64, label %65, label %89

65:                                               ; preds = %61
  call void @llvm.lifetime.start.p0(i64 8, ptr %17) #3
  %66 = load ptr, ptr %13, align 8
  %67 = call ptr @__cxa_begin_catch(ptr %66) #3
  store ptr %67, ptr %17, align 8
  %68 = invoke noundef nonnull align 8 dereferenceable(8) ptr @_ZN6casadi4uerrEv()
          to label %69 unwind label %81

69:                                               ; preds = %65
  %70 = invoke noundef nonnull align 8 dereferenceable(8) ptr @_ZStlsISt11char_traitsIcEERSt13basic_ostreamIcT_ES5_PKc(ptr noundef nonnull align 8 dereferenceable(8) %68, ptr noundef @.str.125)
          to label %71 unwind label %81

71:                                               ; preds = %69
  %72 = load ptr, ptr %17, align 8, !tbaa !234
  %73 = load ptr, ptr %72, align 8, !tbaa !52
  %74 = getelementptr inbounds ptr, ptr %73, i64 2
  %75 = load ptr, ptr %74, align 8
  %76 = call noundef ptr %75(ptr noundef nonnull align 8 dereferenceable(8) %72) #3
  %77 = invoke noundef nonnull align 8 dereferenceable(8) ptr @_ZStlsISt11char_traitsIcEERSt13basic_ostreamIcT_ES5_PKc(ptr noundef nonnull align 8 dereferenceable(8) %70, ptr noundef %76)
          to label %78 unwind label %81

78:                                               ; preds = %71
  %79 = invoke noundef nonnull align 8 dereferenceable(8) ptr @_ZNSolsEPFRSoS_E(ptr noundef nonnull align 8 dereferenceable(8) %77, ptr noundef @_ZSt4endlIcSt11char_traitsIcEERSt13basic_ostreamIT_T0_ES6_)
          to label %80 unwind label %81

80:                                               ; preds = %78
  store i32 -1, ptr %6, align 4
  store i32 1, ptr %16, align 4
  call void @__cxa_end_catch()
  call void @llvm.lifetime.end.p0(i64 8, ptr %17) #3
  br label %87

81:                                               ; preds = %78, %71, %69, %65
  %82 = landingpad { ptr, i32 }
          cleanup
  %83 = extractvalue { ptr, i32 } %82, 0
  store ptr %83, ptr %13, align 8
  %84 = extractvalue { ptr, i32 } %82, 1
  store i32 %84, ptr %14, align 4
  invoke void @__cxa_end_catch()
          to label %85 unwind label %94

85:                                               ; preds = %81
  call void @llvm.lifetime.end.p0(i64 8, ptr %17) #3
  br label %89

86:                                               ; No predecessors!
  unreachable

87:                                               ; preds = %80, %59
  %88 = load i32, ptr %6, align 4
  ret i32 %88

89:                                               ; preds = %85, %61
  %90 = load ptr, ptr %13, align 8
  %91 = load i32, ptr %14, align 4
  %92 = insertvalue { ptr, i32 } poison, ptr %90, 0
  %93 = insertvalue { ptr, i32 } %92, i32 %91, 1
  resume { ptr, i32 } %93

94:                                               ; preds = %81
  %95 = landingpad { ptr, i32 }
          catch ptr null
  %96 = extractvalue { ptr, i32 } %95, 0
  call void @__clang_call_terminate(ptr %96) #21
  unreachable
}