; Function Attrs: mustprogress uwtable
define noundef range(i32 -1, 2) i32 @_ZN6casadi13IdasInterface5rhsQFEdP17_generic_N_VectorS2_S2_Pv(double noundef %0, ptr noundef readonly captures(none) %1, ptr readnone captures(none) %2, ptr noundef readonly captures(none) %3, ptr noundef %4) #4 align 2 personality ptr @__gxx_personality_v0 {
  %6 = invoke noundef ptr @_ZN6casadi13IdasInterface6to_memEPv(ptr noundef %4)
          to label %7 unwind label %21

7:                                                ; preds = %5
  %8 = getelementptr inbounds nuw i8, ptr %6, i64 720
  %9 = load ptr, ptr %8, align 8, !tbaa !201
  %10 = load ptr, ptr %1, align 8, !tbaa !221
  %11 = getelementptr inbounds nuw i8, ptr %10, i64 16
  %12 = load ptr, ptr %11, align 8, !tbaa !224
  %13 = getelementptr inbounds nuw i8, ptr %9, i64 1608
  %14 = load i64, ptr %13, align 8, !tbaa !148
  %15 = getelementptr inbounds double, ptr %12, i64 %14
  %16 = load ptr, ptr %3, align 8, !tbaa !221
  %17 = getelementptr inbounds nuw i8, ptr %16, i64 16
  %18 = load ptr, ptr %17, align 8, !tbaa !224
  %19 = invoke noundef i32 @_ZNK6casadi17SundialsInterface10calc_quadFEPNS_14SundialsMemoryEdPKdS4_Pd(ptr noundef nonnull align 8 dereferenceable(2184) %9, ptr noundef nonnull %6, double noundef %0, ptr noundef %12, ptr noundef %15, ptr noundef %18)
          to label %20 unwind label %23

20:                                               ; preds = %7
  %.not = icmp ne i32 %19, 0
  %. = zext i1 %.not to i32
  br label %42

21:                                               ; preds = %5
  %22 = landingpad { ptr, i32 }
          cleanup
          catch ptr @_ZTISt9exception
  br label %25

23:                                               ; preds = %7
  %24 = landingpad { ptr, i32 }
          cleanup
          catch ptr @_ZTISt9exception
  br label %25

25:                                               ; preds = %23, %21
  %.pn = phi { ptr, i32 } [ %24, %23 ], [ %22, %21 ]
  %.016 = extractvalue { ptr, i32 } %.pn, 1
  %26 = tail call i32 @llvm.eh.typeid.for.p0(ptr nonnull @_ZTISt9exception) #28
  %27 = icmp eq i32 %.016, %26
  br i1 %27, label %28, label %43

28:                                               ; preds = %25
  %.014 = extractvalue { ptr, i32 } %.pn, 0
  %29 = tail call ptr @__cxa_begin_catch(ptr %.014) #28
  %30 = invoke noundef nonnull align 8 dereferenceable(8) ptr @_ZN6casadi4uerrEv()
          to label %31 unwind label %40

31:                                               ; preds = %28
  %32 = invoke noundef nonnull align 8 dereferenceable(8) ptr @_ZSt16__ostream_insertIcSt11char_traitsIcEERSt13basic_ostreamIT_T0_ES6_PKS3_l(ptr noundef nonnull align 8 dereferenceable(8) %30, ptr noundef nonnull @.str.125, i64 noundef 13)
          to label %_ZStlsISt11char_traitsIcEERSt13basic_ostreamIcT_ES5_PKc.exit unwind label %40

_ZStlsISt11char_traitsIcEERSt13basic_ostreamIcT_ES5_PKc.exit: ; preds = %31
  %33 = load ptr, ptr %29, align 8, !tbaa !32
  %34 = getelementptr inbounds nuw i8, ptr %33, i64 16
  %35 = load ptr, ptr %34, align 8
  %36 = tail call noundef ptr %35(ptr noundef nonnull align 8 dereferenceable(8) %29) #28
  %37 = invoke noundef nonnull align 8 dereferenceable(8) ptr @_ZStlsISt11char_traitsIcEERSt13basic_ostreamIcT_ES5_PKc(ptr noundef nonnull align 8 dereferenceable(8) %30, ptr noundef %36)
          to label %38 unwind label %40

38:                                               ; preds = %_ZStlsISt11char_traitsIcEERSt13basic_ostreamIcT_ES5_PKc.exit
  %39 = invoke noundef nonnull align 8 dereferenceable(8) ptr @_ZSt4endlIcSt11char_traitsIcEERSt13basic_ostreamIT_T0_ES6_(ptr noundef nonnull align 8 dereferenceable(8) %37)
          to label %_ZNSolsEPFRSoS_E.exit unwind label %40

_ZNSolsEPFRSoS_E.exit:                            ; preds = %38
  tail call void @__cxa_end_catch()
  br label %42

40:                                               ; preds = %38, %31, %_ZStlsISt11char_traitsIcEERSt13basic_ostreamIcT_ES5_PKc.exit, %28
  %41 = landingpad { ptr, i32 }
          cleanup
  invoke void @__cxa_end_catch()
          to label %43 unwind label %44

42:                                               ; preds = %_ZNSolsEPFRSoS_E.exit, %20
  %.1 = phi i32 [ %., %20 ], [ -1, %_ZNSolsEPFRSoS_E.exit ]
  ret i32 %.1

43:                                               ; preds = %40, %25
  %.merged = phi { ptr, i32 } [ %.pn, %25 ], [ %41, %40 ]
  resume { ptr, i32 } %.merged

44:                                               ; preds = %40
  %45 = landingpad { ptr, i32 }
          catch ptr null
  %46 = extractvalue { ptr, i32 } %45, 0
  tail call void @__clang_call_terminate(ptr %46) #31
  unreachable
}